target datalayout = "e-m:e-p270:32:32-p271:32:32-p272:64:64-i64:64-i128:128-f80:128-n8:16:32:64-S128"
target triple = "x86_64-pc-linux-gnu"

%"class.std::__cxx11::basic_string" = type { %"struct.std::__cxx11::basic_string<char>::_Alloc_hider", i64, %union.anon }
%"struct.std::__cxx11::basic_string<char>::_Alloc_hider" = type { ptr }
%union.anon = type { i64, [8 x i8] }
%"class.xgboost::common::PeekableInStream" = type { %"class.dmlc::Stream", ptr, i64, %"class.std::__cxx11::basic_string" }
%"class.dmlc::Stream" = type { ptr }
%"class.xgboost::common::FixedSizeStream" = type { %"class.xgboost::common::PeekableInStream", i64, %"class.std::__cxx11::basic_string" }

; Function Attrs: mustprogress uwtable
define noundef i64 @_ZN7xgboost6common15FixedSizeStream4ReadEPvm(ptr noundef nonnull align 8 dereferenceable(96) %0, ptr noundef %1, i64 noundef %2) unnamed_addr #4 align 2 {
  %4 = alloca ptr, align 8
  %5 = alloca ptr, align 8
  %6 = alloca i64, align 8
  %7 = alloca i64, align 8
  store ptr %0, ptr %4, align 8, !tbaa !26
  store ptr %1, ptr %5, align 8, !tbaa !8
  store i64 %2, ptr %6, align 8, !tbaa !9
  %8 = load ptr, ptr %4, align 8
  call void @llvm.lifetime.start.p0(i64 8, ptr %7) #3
  %9 = load ptr, ptr %5, align 8, !tbaa !8
  %10 = load i64, ptr %6, align 8, !tbaa !9
  %11 = load ptr, ptr %8, align 8, !tbaa !19
  %12 = getelementptr inbounds ptr, ptr %11, i64 4
  %13 = load ptr, ptr %12, align 8
  %14 = call noundef i64 %13(ptr noundef nonnull align 8 dereferenceable(96) %8, ptr noundef %9, i64 noundef %10)
  store i64 %14, ptr %7, align 8, !tbaa !9
  %15 = load i64, ptr %7, align 8, !tbaa !9
  %16 = getelementptr inbounds nuw %"class.xgboost::common::FixedSizeStream", ptr %8, i32 0, i32 1
  %17 = load i64, ptr %16, align 8, !tbaa !28
  %18 = add i64 %17, %15
  store i64 %18, ptr %16, align 8, !tbaa !28
  %19 = load i64, ptr %7, align 8, !tbaa !9
  call void @llvm.lifetime.end.p0(i64 8, ptr %7) #3
  ret i64 %19
}