; Function Attrs: mustprogress uwtable
define noundef i64 @_ZN7xgboost6common15FixedSizeStream4ReadEPvm(ptr noundef nonnull align 8 dereferenceable(96) %0, ptr noundef %1, i64 noundef %2) unnamed_addr #3 align 2 {
  %4 = load ptr, ptr %0, align 8, !tbaa !16
  %5 = getelementptr inbounds nuw i8, ptr %4, i64 32
  %6 = load ptr, ptr %5, align 8
  %7 = tail call noundef i64 %6(ptr noundef nonnull align 8 dereferenceable(96) %0, ptr noundef %1, i64 noundef %2)
  %8 = getelementptr inbounds nuw i8, ptr %0, i64 56
  %9 = load i64, ptr %8, align 8, !tbaa !26
  %10 = add i64 %9, %7
  store i64 %10, ptr %8, align 8, !tbaa !26
  ret i64 %7
}